target datalayout = "e-m:e-p270:32:32-p271:32:32-p272:64:64-i64:64-i128:128-f80:128-n8:16:32:64-S128"
target triple = "x86_64-pc-linux-gnu"

%struct.hiredisAllocFuncs = type { ptr, ptr, ptr, ptr, ptr }
%struct.redisReply = type { i32, i64, double, i64, ptr, [4 x i8], i64, ptr }
%struct.redisReadTask = type { i32, i64, i32, ptr, ptr, ptr }

@hiredisAllocFns = external global %struct.hiredisAllocFuncs, align 8

; Function Attrs: inlinehint nounwind uwtable
define internal ptr @hi_calloc(i64 noundef %0, i64 noundef %1) #2 {
  %3 = alloca ptr, align 8
  %4 = alloca i64, align 8
  %5 = alloca i64, align 8
  store i64 %0, ptr %4, align 8, !tbaa !19
  store i64 %1, ptr %5, align 8, !tbaa !19
  %6 = load i64, ptr %5, align 8, !tbaa !19
  %7 = udiv i64 -1, %6
  %8 = load i64, ptr %4, align 8, !tbaa !19
  %9 = icmp ult i64 %7, %8
  br i1 %9, label %10, label %11

10:                                               ; preds = %2
  store ptr null, ptr %3, align 8
  br label %16

11:                                               ; preds = %2
  %12 = load ptr, ptr getelementptr inbounds nuw (%struct.hiredisAllocFuncs, ptr @hiredisAllocFns, i32 0, i32 1), align 8, !tbaa !97
  %13 = load i64, ptr %4, align 8, !tbaa !19
  %14 = load i64, ptr %5, align 8, !tbaa !19
  %15 = call ptr %12(i64 noundef %13, i64 noundef %14)
  store ptr %15, ptr %3, align 8
  br label %16

16:                                               ; preds = %11, %10
  %17 = load ptr, ptr %3, align 8
  ret ptr %17
}

; Function Attrs: nounwind uwtable
define internal ptr @createReplyObject(i32 noundef %0) #0 {
  %2 = alloca ptr, align 8
  %3 = alloca i32, align 4
  %4 = alloca ptr, align 8
  %5 = alloca i32, align 4
  store i32 %0, ptr %3, align 4, !tbaa !29
  call void @llvm.lifetime.start.p0(i64 8, ptr %4) #10
  %6 = call ptr @hi_calloc(i64 noundef 1, i64 noundef 64)
  store ptr %6, ptr %4, align 8, !tbaa !8
  %7 = load ptr, ptr %4, align 8, !tbaa !8
  %8 = icmp eq ptr %7, null
  br i1 %8, label %9, label %10

9:                                                ; preds = %1
  store ptr null, ptr %2, align 8
  store i32 1, ptr %5, align 4
  br label %15

10:                                               ; preds = %1
  %11 = load i32, ptr %3, align 4, !tbaa !29
  %12 = load ptr, ptr %4, align 8, !tbaa !8
  %13 = getelementptr inbounds nuw %struct.redisReply, ptr %12, i32 0, i32 0
  store i32 %11, ptr %13, align 8, !tbaa !10
  %14 = load ptr, ptr %4, align 8, !tbaa !8
  store ptr %14, ptr %2, align 8
  store i32 1, ptr %5, align 4
  br label %15

15:                                               ; preds = %10, %9
  call void @llvm.lifetime.end.p0(i64 8, ptr %4) #10
  %16 = load ptr, ptr %2, align 8
  ret ptr %16
}

; Function Attrs: nounwind uwtable
define internal ptr @createArrayObject(ptr noundef %0, i64 noundef %1) #0 {
  %3 = alloca ptr, align 8
  %4 = alloca ptr, align 8
  %5 = alloca i64, align 8
  %6 = alloca ptr, align 8
  %7 = alloca ptr, align 8
  %8 = alloca i32, align 4
  store ptr %0, ptr %4, align 8, !tbaa !86
  store i64 %1, ptr %5, align 8, !tbaa !19
  call void @llvm.lifetime.start.p0(i64 8, ptr %6) #10
  call void @llvm.lifetime.start.p0(i64 8, ptr %7) #10
  %9 = load ptr, ptr %4, align 8, !tbaa !86
  %10 = getelementptr inbounds nuw %struct.redisReadTask, ptr %9, i32 0, i32 0
  %11 = load i32, ptr %10, align 8, !tbaa !88
  %12 = call ptr @createReplyObject(i32 noundef %11)
  store ptr %12, ptr %6, align 8, !tbaa !8
  %13 = load ptr, ptr %6, align 8, !tbaa !8
  %14 = icmp eq ptr %13, null
  br i1 %14, label %15, label %16

15:                                               ; preds = %2
  store ptr null, ptr %3, align 8
  store i32 1, ptr %8, align 4
  br label %56

16:                                               ; preds = %2
  %17 = load i64, ptr %5, align 8, !tbaa !19
  %18 = icmp ugt i64 %17, 0
  br i1 %18, label %19, label %31

19:                                               ; preds = %16
  %20 = load i64, ptr %5, align 8, !tbaa !19
  %21 = call ptr @hi_calloc(i64 noundef %20, i64 noundef 8)
  %22 = load ptr, ptr %6, align 8, !tbaa !8
  %23 = getelementptr inbounds nuw %struct.redisReply, ptr %22, i32 0, i32 7
  store ptr %21, ptr %23, align 8, !tbaa !18
  %24 = load ptr, ptr %6, align 8, !tbaa !8
  %25 = getelementptr inbounds nuw %struct.redisReply, ptr %24, i32 0, i32 7
  %26 = load ptr, ptr %25, align 8, !tbaa !18
  %27 = icmp eq ptr %26, null
  br i1 %27, label %28, label %30

28:                                               ; preds = %19
  %29 = load ptr, ptr %6, align 8, !tbaa !8
  call void @freeReplyObject(ptr noundef %29)
  store ptr null, ptr %3, align 8
  store i32 1, ptr %8, align 4
  br label %56

30:                                               ; preds = %19
  br label %31

31:                                               ; preds = %30, %16
  %32 = load i64, ptr %5, align 8, !tbaa !19
  %33 = load ptr, ptr %6, align 8, !tbaa !8
  %34 = getelementptr inbounds nuw %struct.redisReply, ptr %33, i32 0, i32 6
  store i64 %32, ptr %34, align 8, !tbaa !20
  %35 = load ptr, ptr %4, align 8, !tbaa !86
  %36 = getelementptr inbounds nuw %struct.redisReadTask, ptr %35, i32 0, i32 4
  %37 = load ptr, ptr %36, align 8, !tbaa !91
  %38 = icmp ne ptr %37, null
  br i1 %38, label %39, label %54

39:                                               ; preds = %31
  %40 = load ptr, ptr %4, align 8, !tbaa !86
  %41 = getelementptr inbounds nuw %struct.redisReadTask, ptr %40, i32 0, i32 4
  %42 = load ptr, ptr %41, align 8, !tbaa !91
  %43 = getelementptr inbounds nuw %struct.redisReadTask, ptr %42, i32 0, i32 3
  %44 = load ptr, ptr %43, align 8, !tbaa !92
  store ptr %44, ptr %7, align 8, !tbaa !8
  %45 = load ptr, ptr %6, align 8, !tbaa !8
  %46 = load ptr, ptr %7, align 8, !tbaa !8
  %47 = getelementptr inbounds nuw %struct.redisReply, ptr %46, i32 0, i32 7
  %48 = load ptr, ptr %47, align 8, !tbaa !18
  %49 = load ptr, ptr %4, align 8, !tbaa !86
  %50 = getelementptr inbounds nuw %struct.redisReadTask, ptr %49, i32 0, i32 2
  %51 = load i32, ptr %50, align 8, !tbaa !93
  %52 = sext i32 %51 to i64
  %53 = getelementptr inbounds ptr, ptr %48, i64 %52
  store ptr %45, ptr %53, align 8, !tbaa !8
  br label %54

54:                                               ; preds = %39, %31
  %55 = load ptr, ptr %6, align 8, !tbaa !8
  store ptr %55, ptr %3, align 8
  store i32 1, ptr %8, align 4
  br label %56

56:                                               ; preds = %54, %28, %15
  call void @llvm.lifetime.end.p0(i64 8, ptr %7) #10
  call void @llvm.lifetime.end.p0(i64 8, ptr %6) #10
  %57 = load ptr, ptr %3, align 8
  ret ptr %57
}