; Function Attrs: nounwind uwtable
define internal ptr @createArrayObject(ptr noundef readonly captures(none) %0, i64 noundef %1) #0 {
  %3 = load i32, ptr %0, align 8, !tbaa !76
  %4 = load ptr, ptr getelementptr inbounds nuw (i8, ptr @hiredisAllocFns, i64 8), align 8, !tbaa !59
  %5 = tail call ptr %4(i64 noundef 1, i64 noundef 64) #13
  %6 = icmp eq ptr %5, null
  br i1 %6, label %createReplyObject.exit.thread, label %7

7:                                                ; preds = %2
  store i32 %3, ptr %5, align 8, !tbaa !4
  %.not = icmp eq i64 %1, 0
  br i1 %.not, label %15, label %8

8:                                                ; preds = %7
  %mul.ov.i = icmp ugt i64 %1, 2305843009213693951
  br i1 %mul.ov.i, label %hi_calloc.exit.thread, label %hi_calloc.exit

hi_calloc.exit.thread:                            ; preds = %8
  %9 = getelementptr inbounds nuw i8, ptr %5, i64 56
  store ptr null, ptr %9, align 8, !tbaa !15
  br label %14

hi_calloc.exit:                                   ; preds = %8
  %10 = load ptr, ptr getelementptr inbounds nuw (i8, ptr @hiredisAllocFns, i64 8), align 8, !tbaa !59
  %11 = tail call ptr %10(i64 noundef range(i64 1, 0) %1, i64 noundef 8) #13
  %12 = getelementptr inbounds nuw i8, ptr %5, i64 56
  store ptr %11, ptr %12, align 8, !tbaa !15
  %13 = icmp eq ptr %11, null
  br i1 %13, label %14, label %15

14:                                               ; preds = %hi_calloc.exit.thread, %hi_calloc.exit
  tail call void @freeReplyObject(ptr noundef nonnull %5)
  br label %createReplyObject.exit.thread

15:                                               ; preds = %hi_calloc.exit, %7
  %16 = getelementptr inbounds nuw i8, ptr %5, i64 48
  store i64 %1, ptr %16, align 8, !tbaa !16
  %17 = getelementptr inbounds nuw i8, ptr %0, i64 32
  %18 = load ptr, ptr %17, align 8, !tbaa !80
  %.not18 = icmp eq ptr %18, null
  br i1 %.not18, label %createReplyObject.exit.thread, label %19

19:                                               ; preds = %15
  %20 = getelementptr inbounds nuw i8, ptr %18, i64 24
  %21 = load ptr, ptr %20, align 8, !tbaa !81
  %22 = getelementptr inbounds nuw i8, ptr %21, i64 56
  %23 = load ptr, ptr %22, align 8, !tbaa !15
  %24 = getelementptr inbounds nuw i8, ptr %0, i64 16
  %25 = load i32, ptr %24, align 8, !tbaa !82
  %26 = sext i32 %25 to i64
  %27 = getelementptr inbounds ptr, ptr %23, i64 %26
  store ptr %5, ptr %27, align 8, !tbaa !17
  br label %createReplyObject.exit.thread

createReplyObject.exit.thread:                    ; preds = %2, %15, %19, %14
  %.0 = phi ptr [ null, %14 ], [ %5, %19 ], [ %5, %15 ], [ null, %2 ]
  ret ptr %.0
}